; Function Attrs: mustprogress nounwind uwtable
define dso_local void @_ZN4node12NodePlatform9CreateJobEN2v812TaskPriorityESt10unique_ptrINS1_7JobTaskESt14default_deleteIS4_EE(ptr noalias sret(%"class.std::unique_ptr.106") align 8 %agg.result, ptr noundef nonnull align 8 dereferenceable(137) %this, i8 noundef zeroext %priority, ptr nocapture noundef %job_task) unnamed_addr #3 align 2 {
entry:
  %agg.tmp = alloca %"class.std::unique_ptr.114", align 8
  %0 = load i64, ptr %job_task, align 8
  store i64 %0, ptr %agg.tmp, align 8
  store ptr null, ptr %job_task, align 8
  %vtable = load ptr, ptr %this, align 8
  %vfn = getelementptr inbounds i8, ptr %vtable, i64 48
  %1 = load ptr, ptr %vfn, align 8
  %call = tail call noundef i32 %1(ptr noundef nonnull align 8 dereferenceable(137) %this) #23
  %conv = sext i32 %call to i64
  call void @_ZN2v88platform19NewDefaultJobHandleEPNS_8PlatformENS_12TaskPriorityESt10unique_ptrINS_7JobTaskESt14default_deleteIS5_EEm(ptr sret(%"class.std::unique_ptr.106") align 8 %agg.result, ptr noundef nonnull %this, i8 noundef zeroext %priority, ptr noundef nonnull %agg.tmp, i64 noundef %conv) #23
  %2 = load ptr, ptr %agg.tmp, align 8
  %cmp.not.i = icmp eq ptr %2, null
  br i1 %cmp.not.i, label %_ZNSt10unique_ptrIN2v87JobTaskESt14default_deleteIS1_EED2Ev.exit, label %_ZNKSt14default_deleteIN2v87JobTaskEEclEPS1_.exit.i

_ZNKSt14default_deleteIN2v87JobTaskEEclEPS1_.exit.i: ; preds = %entry
  %vtable.i.i = load ptr, ptr %2, align 8
  %vfn.i.i = getelementptr inbounds i8, ptr %vtable.i.i, i64 8
  %3 = load ptr, ptr %vfn.i.i, align 8
  call void %3(ptr noundef nonnull align 8 dereferenceable(8) %2) #23
  br label %_ZNSt10unique_ptrIN2v87JobTaskESt14default_deleteIS1_EED2Ev.exit

_ZNSt10unique_ptrIN2v87JobTaskESt14default_deleteIS1_EED2Ev.exit: ; preds = %entry, %_ZNKSt14default_deleteIN2v87JobTaskEEclEPS1_.exit.i
  ret void
}